; Function Attrs: mustprogress nounwind willreturn memory(argmem: readwrite, inaccessiblemem: readwrite) uwtable
define void @_ZN10duckdb_hll7sdsfreeEPc(ptr noundef captures(address_is_null) %0) local_unnamed_addr #7 {
  %2 = icmp eq ptr %0, null
  br i1 %2, label %10, label %3

3:                                                ; preds = %1
  %4 = getelementptr inbounds i8, ptr %0, i64 -1
  %5 = load i8, ptr %4, align 1, !tbaa !20
  %6 = and i8 %5, 7
  %7 = icmp samesign ult i8 %6, 5
  br i1 %7, label %switch.lookup, label %_ZN10duckdb_hllL10sdsHdrSizeEc.exit

switch.lookup:                                    ; preds = %3
  %8 = zext nneg i8 %6 to i64
  %switch.gep = getelementptr inbounds nuw [5 x i64], ptr @switch.table._ZN10duckdb_hll12sdssplitargsEPKcPi.4, i64 0, i64 %8
  %switch.load = load i64, ptr %switch.gep, align 8
  br label %_ZN10duckdb_hllL10sdsHdrSizeEc.exit

_ZN10duckdb_hllL10sdsHdrSizeEc.exit:              ; preds = %3, %switch.lookup
  %.0.i.neg = phi i64 [ %switch.load, %switch.lookup ], [ 0, %3 ]
  %9 = getelementptr inbounds i8, ptr %0, i64 %.0.i.neg
  tail call void @free(ptr noundef %9) #30
  br label %10

10:                                               ; preds = %1, %_ZN10duckdb_hllL10sdsHdrSizeEc.exit
  ret void
}